; Function Attrs: mustprogress uwtable
define noundef nonnull align 8 dereferenceable(136) ptr @_ZN32pxrInternal_v0_24__pxrReserved__11GfTransformmLERKS0_(ptr noundef nonnull returned align 8 dereferenceable(136) %0, ptr noundef nonnull align 8 dereferenceable(136) %1) local_unnamed_addr #0 align 2 {
  %3 = alloca %"class.pxrInternal_v0_24__pxrReserved__::GfMatrix4d", align 8
  %4 = alloca %"class.pxrInternal_v0_24__pxrReserved__::GfMatrix4d", align 8
  %5 = alloca %"class.pxrInternal_v0_24__pxrReserved__::GfMatrix4d", align 8
  call void @_ZNK32pxrInternal_v0_24__pxrReserved__11GfTransform9GetMatrixEv(ptr dead_on_unwind nonnull writable sret(%"class.pxrInternal_v0_24__pxrReserved__::GfMatrix4d") align 8 %4, ptr noundef nonnull align 8 dereferenceable(136) %0)
  call void @_ZNK32pxrInternal_v0_24__pxrReserved__11GfTransform9GetMatrixEv(ptr dead_on_unwind nonnull writable sret(%"class.pxrInternal_v0_24__pxrReserved__::GfMatrix4d") align 8 %5, ptr noundef nonnull align 8 dereferenceable(136) %1)
  call void @llvm.memcpy.p0.p0.i64(ptr noundef nonnull align 8 dereferenceable(128) %3, ptr noundef nonnull align 8 dereferenceable(128) %4, i64 128, i1 false)
  %6 = call noundef nonnull align 8 dereferenceable(128) ptr @_ZN32pxrInternal_v0_24__pxrReserved__10GfMatrix4dmLERKS0_(ptr noundef nonnull align 8 dereferenceable(128) %3, ptr noundef nonnull align 8 dereferenceable(128) %5)
  %7 = call noundef nonnull align 8 dereferenceable(136) ptr @_ZN32pxrInternal_v0_24__pxrReserved__11GfTransform9SetMatrixERKNS_10GfMatrix4dE(ptr noundef nonnull align 8 dereferenceable(136) %0, ptr noundef nonnull align 8 dereferenceable(128) %3)
  ret ptr %0
}